; Function Attrs: nounwind uwtable
define ptr @l_Lean_Elab_FixedParamPerm_forallTelescope___rarg___lambda__2(ptr noundef %0, ptr noundef %1, ptr noundef %2, ptr noundef %3, ptr noundef %4, ptr noundef %5, ptr noundef %6, ptr noundef %7, ptr noundef %8) #1 {
  tail call void @lean_inc_heartbeat() #5
  %10 = tail call noalias ptr @mi_malloc_small(i64 noundef 40) #5
  %11 = icmp eq ptr %10, null
  br i1 %11, label %12, label %lean_alloc_closure.exit

12:                                               ; preds = %9
  tail call void @lean_internal_panic_out_of_memory() #6
  unreachable

lean_alloc_closure.exit:                          ; preds = %9
  %13 = getelementptr inbounds nuw i8, ptr %10, i64 4
  store i32 1, ptr %10, align 4, !tbaa !4
  store i32 -184549336, ptr %13, align 4
  %14 = getelementptr inbounds nuw i8, ptr %10, i64 8
  store ptr @l_Lean_Elab_FixedParamPerm_forallTelescope___rarg___lambda__1, ptr %14, align 8, !tbaa !9
  %15 = getelementptr inbounds nuw i8, ptr %10, i64 16
  store i16 8, ptr %15, align 8, !tbaa !20
  %16 = getelementptr inbounds nuw i8, ptr %10, i64 18
  store i16 2, ptr %16, align 2, !tbaa !20
  %17 = getelementptr inbounds nuw i8, ptr %10, i64 24
  store ptr %0, ptr %17, align 8, !tbaa !9
  %18 = getelementptr inbounds nuw i8, ptr %10, i64 32
  store ptr %3, ptr %18, align 8, !tbaa !9
  %19 = getelementptr i8, ptr %1, i64 8
  %.val.i.i = load i64, ptr %19, align 8, !tbaa !12
  %.mask.i.i = and i64 %.val.i.i, 9223372036854775807
  %.not.i.i = icmp eq i64 %.mask.i.i, 0
  br i1 %.not.i.i, label %l___private_Lean_Elab_PreDefinition_FixedParams_0__Lean_Elab_FixedParamPerm_forallTelescopeImpl___rarg.exit, label %lean_dec.exit.i.i

lean_dec.exit.i.i:                                ; preds = %lean_alloc_closure.exit
  %20 = tail call ptr @l_Array_foldrMUnsafe_fold___at_Lean_Elab_FixedParamPerm_numFixed___spec__1(ptr noundef nonnull readonly %1, i64 noundef %.mask.i.i, i64 noundef 0, ptr noundef nonnull inttoptr (i64 1 to ptr))
  br label %l___private_Lean_Elab_PreDefinition_FixedParams_0__Lean_Elab_FixedParamPerm_forallTelescopeImpl___rarg.exit

l___private_Lean_Elab_PreDefinition_FixedParams_0__Lean_Elab_FixedParamPerm_forallTelescopeImpl___rarg.exit: ; preds = %lean_alloc_closure.exit, %lean_dec.exit.i.i
  %.0.i.i = phi ptr [ %20, %lean_dec.exit.i.i ], [ inttoptr (i64 1 to ptr), %lean_alloc_closure.exit ]
  %21 = load ptr, ptr @l___private_Lean_Elab_PreDefinition_FixedParams_0__Lean_Elab_FixedParamPerm_forallTelescopeImpl___rarg___closed__2, align 8, !tbaa !9
  %22 = tail call ptr @lean_mk_array(ptr noundef %.0.i.i, ptr noundef %21) #5
  %23 = tail call ptr @l___private_Lean_Elab_PreDefinition_FixedParams_0__Lean_Elab_FixedParamPerm_forallTelescopeImpl_go___rarg(ptr noundef nonnull %1, ptr noundef nonnull %10, ptr noundef nonnull inttoptr (i64 1 to ptr), ptr noundef %2, ptr noundef %22, ptr noundef %4, ptr noundef %5, ptr noundef %6, ptr noundef %7, ptr noundef %8)
  ret ptr %23
}